target datalayout = "e-m:e-p270:32:32-p271:32:32-p272:64:64-i64:64-i128:128-f80:128-n8:16:32:64-S128"
target triple = "x86_64-pc-linux-gnu"

%struct.strbuf = type { i64, i64, ptr }

@.str.47 = private unnamed_addr constant [12 x i8] c"exec_result\00", align 1
@__const.fn_exec_result_fl.buf_payload = private unnamed_addr constant %struct.strbuf { i64 0, i64 0, ptr @strbuf_slopbuf }, align 8
@.str.48 = private unnamed_addr constant [14 x i8] c"id:%d code:%d\00", align 1
@.str.49 = private unnamed_addr constant [8 x i8] c" err:%s\00", align 1

; Function Attrs: nounwind uwtable
define internal void @fn_exec_result_fl(ptr noundef %0, i32 noundef %1, i64 noundef %2, i32 noundef %3, i32 noundef %4) #0 {
  %6 = alloca ptr, align 8
  %7 = alloca i32, align 4
  %8 = alloca i64, align 8
  %9 = alloca i32, align 4
  %10 = alloca i32, align 4
  %11 = alloca ptr, align 8
  %12 = alloca %struct.strbuf, align 8
  store ptr %0, ptr %6, align 8, !tbaa !8
  store i32 %1, ptr %7, align 4, !tbaa !4
  store i64 %2, ptr %8, align 8, !tbaa !12
  store i32 %3, ptr %9, align 4, !tbaa !4
  store i32 %4, ptr %10, align 4, !tbaa !4
  call void @llvm.lifetime.start.p0(i64 8, ptr %11) #9
  store ptr @.str.47, ptr %11, align 8, !tbaa !8
  call void @llvm.lifetime.start.p0(i64 24, ptr %12) #9
  call void @llvm.memcpy.p0.p0.i64(ptr align 8 %12, ptr align 8 @__const.fn_exec_result_fl.buf_payload, i64 24, i1 false)
  %13 = load i32, ptr %9, align 4, !tbaa !4
  %14 = load i32, ptr %10, align 4, !tbaa !4
  call void (ptr, ptr, ...) @strbuf_addf(ptr noundef %12, ptr noundef @.str.48, i32 noundef %13, i32 noundef %14)
  %15 = load i32, ptr %10, align 4, !tbaa !4
  %16 = icmp sgt i32 %15, 0
  br i1 %16, label %17, label %20

17:                                               ; preds = %5
  %18 = load i32, ptr %10, align 4, !tbaa !4
  %19 = call ptr @strerror(i32 noundef %18) #9
  call void (ptr, ptr, ...) @strbuf_addf(ptr noundef %12, ptr noundef @.str.49, ptr noundef %19)
  br label %20

20:                                               ; preds = %17, %5
  %21 = load ptr, ptr %6, align 8, !tbaa !8
  %22 = load i32, ptr %7, align 4, !tbaa !4
  %23 = load ptr, ptr %11, align 8, !tbaa !8
  call void @perf_io_write_fl(ptr noundef %21, i32 noundef %22, ptr noundef %23, ptr noundef null, ptr noundef %8, ptr noundef null, ptr noundef null, ptr noundef %12)
  call void @strbuf_release(ptr noundef %12)
  call void @llvm.lifetime.end.p0(i64 24, ptr %12) #9
  call void @llvm.lifetime.end.p0(i64 8, ptr %11) #9
  ret void
}