; Function Attrs: nounwind uwtable
define internal void @fn_exec_result_fl(ptr noundef %0, i32 noundef %1, i64 noundef %2, i32 noundef %3, i32 noundef %4) #0 {
  %6 = alloca i64, align 8
  %7 = alloca %struct.strbuf, align 8
  store i64 %2, ptr %6, align 8, !tbaa !9
  call void @llvm.lifetime.start.p0(i64 24, ptr nonnull %7) #7
  call void @llvm.memcpy.p0.p0.i64(ptr noundef nonnull align 8 dereferenceable(24) %7, ptr noundef nonnull align 8 dereferenceable(24) @__const.fn_counter.buf_payload, i64 24, i1 false)
  call void (ptr, ptr, ...) @strbuf_addf(ptr noundef nonnull %7, ptr noundef nonnull @.str.48, i32 noundef %3, i32 noundef %4) #7
  %8 = icmp sgt i32 %4, 0
  br i1 %8, label %9, label %11

9:                                                ; preds = %5
  %10 = call ptr @strerror(i32 noundef %4) #7
  call void (ptr, ptr, ...) @strbuf_addf(ptr noundef nonnull %7, ptr noundef nonnull @.str.49, ptr noundef %10) #7
  br label %11

11:                                               ; preds = %9, %5
  call fastcc void @perf_io_write_fl(ptr noundef %0, i32 noundef %1, ptr noundef nonnull @.str.47, ptr noundef null, ptr noundef nonnull %6, ptr noundef null, ptr noundef null, ptr noundef %7)
  call void @strbuf_release(ptr noundef nonnull %7) #7
  call void @llvm.lifetime.end.p0(i64 24, ptr nonnull %7) #7
  ret void
}